target datalayout = "e-m:e-p270:32:32-p271:32:32-p272:64:64-i64:64-i128:128-f80:128-n8:16:32:64-S128"
target triple = "x86_64-pc-linux-gnu"

%struct.CastContext = type { ptr, ptr, ptr, ptr, ptr, i32, i32 }
%struct.Expr_ = type { ptr, %union.SourceSpan, i16, %union.anon.29 }
%union.SourceSpan = type { i64 }
%union.anon.29 = type { %struct.ExprAnySwitch }
%struct.ExprAnySwitch = type { i8, %union.anon.31 }
%union.anon.31 = type { %struct.anon.32 }
%struct.anon.32 = type { ptr, %union.SourceSpan, ptr }
%struct.Type_ = type { i32, ptr, ptr, ptr, %union.anon.85, ptr, ptr, %union.anon.87 }
%union.anon.85 = type { ptr }
%union.anon.87 = type { %struct.TypeFunction }
%struct.TypeFunction = type { ptr, ptr, ptr }
%struct.Decl_ = type { ptr, ptr, %union.SourceSpan, i64, %union.anon, i32, %union.anon.0, i64, ptr, ptr, ptr, %union.anon.1 }
%union.anon = type { ptr }
%union.anon.0 = type { i16 }
%union.anon.1 = type { %struct.FuncDecl }
%struct.FuncDecl = type { i32, [4 x i8], %struct.Signature_, i32, i32, %union.anon.8 }
%struct.Signature_ = type <{ %struct.CalleeAttributes, i16, i8, i32, i32, [4 x i8], ptr }>
%struct.CalleeAttributes = type { i8 }
%union.anon.8 = type { %struct.anon.9 }
%struct.anon.9 = type { i16, %union.anon.10 }
%union.anon.10 = type { ptr }
%struct.anon.2 = type { ptr, ptr, %union.anon.3 }
%union.anon.3 = type { %struct.BitStructDecl }
%struct.BitStructDecl = type { ptr, ptr, i8 }
%struct.TypeInfo_ = type { i16, ptr, %union.SourceSpan, %union.anon.56 }
%union.anon.56 = type { %struct.anon.57 }
%struct.anon.57 = type { ptr, ptr }

@.str.13 = private unnamed_addr constant [119 x i8] c"Implicitly casting %s to %s is not permitted, but you may do an explicit cast by placing '(%s)' before the expression.\00", align 1
@.str.14 = private unnamed_addr constant [37 x i8] c"It is not possible to cast %s to %s.\00", align 1

; Function Attrs: nounwind uwtable
define internal void @report_cast_error(ptr noundef %0, i1 noundef zeroext %1) #0 {
  %3 = alloca ptr, align 8
  %4 = alloca ptr, align 8
  %5 = alloca ptr, align 8
  %6 = alloca ptr, align 8
  %7 = alloca ptr, align 8
  %8 = alloca ptr, align 8
  %9 = alloca ptr, align 8
  %10 = alloca i8, align 1
  %11 = alloca ptr, align 8
  %12 = alloca ptr, align 8
  store ptr %0, ptr %9, align 8
  %13 = zext i1 %1 to i8
  store i8 %13, ptr %10, align 1
  %14 = load ptr, ptr %9, align 8
  %15 = getelementptr inbounds %struct.CastContext, ptr %14, i32 0, i32 1
  %16 = load ptr, ptr %15, align 8
  store ptr %16, ptr %11, align 8
  %17 = load ptr, ptr %9, align 8
  %18 = getelementptr inbounds %struct.CastContext, ptr %17, i32 0, i32 3
  %19 = load ptr, ptr %18, align 8
  store ptr %19, ptr %12, align 8
  %20 = load i8, ptr %10, align 1
  %21 = trunc i8 %20 to i1
  br i1 %21, label %22, label %65

22:                                               ; preds = %2
  %23 = load ptr, ptr %11, align 8
  %24 = getelementptr inbounds %struct.Expr_, ptr %23, i32 0, i32 1
  %25 = load ptr, ptr %11, align 8
  %26 = getelementptr inbounds %struct.Expr_, ptr %25, i32 0, i32 0
  %27 = load ptr, ptr %26, align 8
  store ptr %27, ptr %4, align 8
  %28 = load ptr, ptr %4, align 8
  %29 = icmp ne ptr %28, null
  br i1 %29, label %31, label %30

30:                                               ; preds = %22
  store ptr null, ptr %3, align 8
  br label %41

31:                                               ; preds = %22
  %32 = load ptr, ptr %4, align 8
  %33 = load i32, ptr %32, align 8
  %34 = icmp eq i32 %33, 40
  br i1 %34, label %35, label %39

35:                                               ; preds = %31
  %36 = load ptr, ptr %4, align 8
  %37 = getelementptr inbounds %struct.Type_, ptr %36, i32 0, i32 7
  %38 = load ptr, ptr %37, align 8
  store ptr %38, ptr %3, align 8
  br label %41

39:                                               ; preds = %31
  %40 = load ptr, ptr %4, align 8
  store ptr %40, ptr %3, align 8
  br label %41

41:                                               ; preds = %39, %35, %30
  %42 = load ptr, ptr %3, align 8
  %43 = call ptr @type_quoted_error_string(ptr noundef %42)
  %44 = load ptr, ptr %12, align 8
  %45 = call ptr @type_quoted_error_string(ptr noundef %44)
  %46 = load ptr, ptr %12, align 8
  store ptr %46, ptr %6, align 8
  %47 = load ptr, ptr %6, align 8
  %48 = icmp ne ptr %47, null
  br i1 %48, label %50, label %49

49:                                               ; preds = %41
  store ptr null, ptr %5, align 8
  br label %60

50:                                               ; preds = %41
  %51 = load ptr, ptr %6, align 8
  %52 = load i32, ptr %51, align 8
  %53 = icmp eq i32 %52, 40
  br i1 %53, label %54, label %58

54:                                               ; preds = %50
  %55 = load ptr, ptr %6, align 8
  %56 = getelementptr inbounds %struct.Type_, ptr %55, i32 0, i32 7
  %57 = load ptr, ptr %56, align 8
  store ptr %57, ptr %5, align 8
  br label %60

58:                                               ; preds = %50
  %59 = load ptr, ptr %6, align 8
  store ptr %59, ptr %5, align 8
  br label %60

60:                                               ; preds = %58, %54, %49
  %61 = load ptr, ptr %5, align 8
  %62 = call ptr @type_to_error_string(ptr noundef %61)
  %63 = getelementptr inbounds %union.SourceSpan, ptr %24, i32 0, i32 0
  %64 = load i64, ptr %63, align 8
  call void (i64, ptr, ...) @sema_error_at(i64 %64, ptr noundef @.str.13, ptr noundef %43, ptr noundef %45, ptr noundef %62)
  br label %91

65:                                               ; preds = %2
  %66 = load ptr, ptr %11, align 8
  %67 = getelementptr inbounds %struct.Expr_, ptr %66, i32 0, i32 1
  %68 = load ptr, ptr %11, align 8
  %69 = getelementptr inbounds %struct.Expr_, ptr %68, i32 0, i32 0
  %70 = load ptr, ptr %69, align 8
  store ptr %70, ptr %8, align 8
  %71 = load ptr, ptr %8, align 8
  %72 = icmp ne ptr %71, null
  br i1 %72, label %74, label %73

73:                                               ; preds = %65
  store ptr null, ptr %7, align 8
  br label %84

74:                                               ; preds = %65
  %75 = load ptr, ptr %8, align 8
  %76 = load i32, ptr %75, align 8
  %77 = icmp eq i32 %76, 40
  br i1 %77, label %78, label %82

78:                                               ; preds = %74
  %79 = load ptr, ptr %8, align 8
  %80 = getelementptr inbounds %struct.Type_, ptr %79, i32 0, i32 7
  %81 = load ptr, ptr %80, align 8
  store ptr %81, ptr %7, align 8
  br label %84

82:                                               ; preds = %74
  %83 = load ptr, ptr %8, align 8
  store ptr %83, ptr %7, align 8
  br label %84

84:                                               ; preds = %82, %78, %73
  %85 = load ptr, ptr %7, align 8
  %86 = call ptr @type_quoted_error_string(ptr noundef %85)
  %87 = load ptr, ptr %12, align 8
  %88 = call ptr @type_quoted_error_string(ptr noundef %87)
  %89 = getelementptr inbounds %union.SourceSpan, ptr %67, i32 0, i32 0
  %90 = load i64, ptr %89, align 8
  call void (i64, ptr, ...) @sema_error_at(i64 %90, ptr noundef @.str.14, ptr noundef %86, ptr noundef %88)
  br label %91

91:                                               ; preds = %84, %60
  ret void
}

; Function Attrs: nounwind uwtable
define internal zeroext i1 @rule_bits_to_arr(ptr noundef %0, i1 noundef zeroext %1, i1 noundef zeroext %2) #0 {
  %4 = alloca i1, align 1
  %5 = alloca ptr, align 8
  %6 = alloca i8, align 1
  %7 = alloca i8, align 1
  %8 = alloca i1, align 1
  %9 = alloca ptr, align 8
  %10 = alloca i8, align 1
  %11 = alloca i8, align 1
  %12 = alloca i1, align 1
  %13 = alloca ptr, align 8
  %14 = alloca i8, align 1
  %15 = alloca i8, align 1
  %16 = alloca ptr, align 8
  %17 = alloca ptr, align 8
  store ptr %0, ptr %13, align 8
  %18 = zext i1 %1 to i8
  store i8 %18, ptr %14, align 1
  %19 = zext i1 %2 to i8
  store i8 %19, ptr %15, align 1
  %20 = load i8, ptr %15, align 1
  %21 = trunc i8 %20 to i1
  br i1 %21, label %22, label %26

22:                                               ; preds = %3
  %23 = load i8, ptr %14, align 1
  %24 = trunc i8 %23 to i1
  br i1 %24, label %26, label %25

25:                                               ; preds = %22
  store i1 false, ptr %12, align 1
  br label %78

26:                                               ; preds = %22, %3
  %27 = load ptr, ptr %13, align 8
  %28 = getelementptr inbounds %struct.CastContext, ptr %27, i32 0, i32 2
  %29 = load ptr, ptr %28, align 8
  %30 = getelementptr inbounds %struct.Type_, ptr %29, i32 0, i32 7
  %31 = load ptr, ptr %30, align 8
  %32 = getelementptr inbounds %struct.Decl_, ptr %31, i32 0, i32 11
  %33 = getelementptr inbounds %struct.anon.2, ptr %32, i32 0, i32 2
  %34 = getelementptr inbounds %struct.BitStructDecl, ptr %33, i32 0, i32 0
  %35 = load ptr, ptr %34, align 8
  %36 = getelementptr inbounds %struct.TypeInfo_, ptr %35, i32 0, i32 1
  %37 = load ptr, ptr %36, align 8
  %38 = getelementptr inbounds %struct.Type_, ptr %37, i32 0, i32 1
  %39 = load ptr, ptr %38, align 8
  store ptr %39, ptr %16, align 8
  %40 = load ptr, ptr %13, align 8
  %41 = getelementptr inbounds %struct.CastContext, ptr %40, i32 0, i32 4
  %42 = load ptr, ptr %41, align 8
  store ptr %42, ptr %17, align 8
  %43 = load ptr, ptr %16, align 8
  %44 = load ptr, ptr %17, align 8
  %45 = icmp ne ptr %43, %44
  br i1 %45, label %46, label %60

46:                                               ; preds = %26
  %47 = load ptr, ptr %13, align 8
  %48 = load i8, ptr %15, align 1
  %49 = trunc i8 %48 to i1
  store ptr %47, ptr %5, align 8
  store i8 0, ptr %6, align 1
  %50 = zext i1 %49 to i8
  store i8 %50, ptr %7, align 1
  %51 = load i8, ptr %7, align 1
  %52 = trunc i8 %51 to i1
  br i1 %52, label %53, label %54

53:                                               ; preds = %46
  store i1 false, ptr %4, align 1
  br label %58

54:                                               ; preds = %46
  %55 = load ptr, ptr %5, align 8
  %56 = load i8, ptr %6, align 1
  %57 = trunc i8 %56 to i1
  call void @report_cast_error(ptr noundef %55, i1 noundef zeroext %57)
  store i1 false, ptr %4, align 1
  br label %58

58:                                               ; preds = %54, %53
  %59 = load i1, ptr %4, align 1
  store i1 %59, ptr %12, align 1
  br label %78

60:                                               ; preds = %26
  %61 = load i8, ptr %14, align 1
  %62 = trunc i8 %61 to i1
  br i1 %62, label %77, label %63

63:                                               ; preds = %60
  %64 = load ptr, ptr %13, align 8
  %65 = load i8, ptr %15, align 1
  %66 = trunc i8 %65 to i1
  store ptr %64, ptr %9, align 8
  store i8 1, ptr %10, align 1
  %67 = zext i1 %66 to i8
  store i8 %67, ptr %11, align 1
  %68 = load i8, ptr %11, align 1
  %69 = trunc i8 %68 to i1
  br i1 %69, label %70, label %71

70:                                               ; preds = %63
  store i1 false, ptr %8, align 1
  br label %75

71:                                               ; preds = %63
  %72 = load ptr, ptr %9, align 8
  %73 = load i8, ptr %10, align 1
  %74 = trunc i8 %73 to i1
  call void @report_cast_error(ptr noundef %72, i1 noundef zeroext %74)
  store i1 false, ptr %8, align 1
  br label %75

75:                                               ; preds = %71, %70
  %76 = load i1, ptr %8, align 1
  store i1 %76, ptr %12, align 1
  br label %78

77:                                               ; preds = %60
  store i1 true, ptr %12, align 1
  br label %78

78:                                               ; preds = %77, %75, %58, %25
  %79 = load i1, ptr %12, align 1
  ret i1 %79
}