; Function Attrs: nounwind uwtable
define internal noundef zeroext i1 @rule_bits_to_arr(ptr nocapture noundef readonly %0, i1 noundef zeroext %1, i1 noundef zeroext %2) #0 {
  %.not21 = xor i1 %2, true
  %brmerge = or i1 %.not21, %1
  br i1 %brmerge, label %4, label %55

4:                                                ; preds = %3
  %5 = getelementptr inbounds i8, ptr %0, i64 16
  %6 = load ptr, ptr %5, align 8
  %7 = getelementptr inbounds i8, ptr %6, i64 56
  %8 = load ptr, ptr %7, align 8
  %9 = getelementptr inbounds i8, ptr %8, i64 96
  %10 = load ptr, ptr %9, align 8
  %11 = getelementptr inbounds i8, ptr %10, i64 8
  %12 = load ptr, ptr %11, align 8
  %13 = getelementptr inbounds i8, ptr %12, i64 8
  %14 = load ptr, ptr %13, align 8
  %15 = getelementptr inbounds i8, ptr %0, i64 32
  %16 = load ptr, ptr %15, align 8
  %.not = icmp eq ptr %14, %16
  br i1 %.not, label %32, label %17

17:                                               ; preds = %4
  br i1 %2, label %55, label %18

18:                                               ; preds = %17
  %19 = getelementptr i8, ptr %0, i64 8
  %.val = load ptr, ptr %19, align 8
  %20 = getelementptr i8, ptr %0, i64 24
  %.val23 = load ptr, ptr %20, align 8
  %21 = getelementptr inbounds i8, ptr %.val, i64 8
  %22 = load ptr, ptr %.val, align 8
  %.not29.i = icmp eq ptr %22, null
  br i1 %.not29.i, label %report_cast_error.exit, label %23

23:                                               ; preds = %18
  %24 = load i32, ptr %22, align 8
  %25 = icmp eq i32 %24, 40
  br i1 %25, label %26, label %report_cast_error.exit

26:                                               ; preds = %23
  %27 = getelementptr inbounds i8, ptr %22, i64 56
  %28 = load ptr, ptr %27, align 8
  br label %report_cast_error.exit

report_cast_error.exit:                           ; preds = %18, %23, %26
  %.025.i = phi ptr [ %28, %26 ], [ null, %18 ], [ %22, %23 ]
  %29 = tail call ptr @type_quoted_error_string(ptr noundef %.025.i) #10
  %30 = tail call ptr @type_quoted_error_string(ptr noundef %.val23) #10
  %31 = load i64, ptr %21, align 8
  tail call void (i64, ptr, ...) @sema_error_at(i64 %31, ptr noundef nonnull @.str.14, ptr noundef %29, ptr noundef %30) #10
  br label %55

32:                                               ; preds = %4
  %brmerge22 = or i1 %1, %2
  br i1 %brmerge22, label %55, label %33

33:                                               ; preds = %32
  %34 = getelementptr i8, ptr %0, i64 8
  %.val24 = load ptr, ptr %34, align 8
  %35 = getelementptr i8, ptr %0, i64 24
  %.val25 = load ptr, ptr %35, align 8
  %36 = getelementptr inbounds i8, ptr %.val24, i64 8
  %37 = load ptr, ptr %.val24, align 8
  %.not29.i26 = icmp eq ptr %37, null
  br i1 %.not29.i26, label %44, label %38

38:                                               ; preds = %33
  %39 = load i32, ptr %37, align 8
  %40 = icmp eq i32 %39, 40
  br i1 %40, label %41, label %44

41:                                               ; preds = %38
  %42 = getelementptr inbounds i8, ptr %37, i64 56
  %43 = load ptr, ptr %42, align 8
  br label %44

44:                                               ; preds = %41, %38, %33
  %.0.i = phi ptr [ %43, %41 ], [ null, %33 ], [ %37, %38 ]
  %45 = tail call ptr @type_quoted_error_string(ptr noundef %.0.i) #10
  %46 = tail call ptr @type_quoted_error_string(ptr noundef %.val25) #10
  %.not30.i = icmp eq ptr %.val25, null
  br i1 %.not30.i, label %report_cast_error.exit27, label %47

47:                                               ; preds = %44
  %48 = load i32, ptr %.val25, align 8
  %49 = icmp eq i32 %48, 40
  br i1 %49, label %50, label %report_cast_error.exit27

50:                                               ; preds = %47
  %51 = getelementptr inbounds i8, ptr %.val25, i64 56
  %52 = load ptr, ptr %51, align 8
  br label %report_cast_error.exit27

report_cast_error.exit27:                         ; preds = %44, %47, %50
  %.024.i = phi ptr [ %52, %50 ], [ null, %44 ], [ %.val25, %47 ]
  %53 = tail call ptr @type_to_error_string(ptr noundef %.024.i) #10
  %54 = load i64, ptr %36, align 8
  tail call void (i64, ptr, ...) @sema_error_at(i64 %54, ptr noundef nonnull @.str.13, ptr noundef %45, ptr noundef %46, ptr noundef %53) #10
  br label %55

55:                                               ; preds = %32, %report_cast_error.exit27, %report_cast_error.exit, %17, %3
  %.020 = phi i1 [ false, %3 ], [ false, %17 ], [ false, %report_cast_error.exit ], [ false, %report_cast_error.exit27 ], [ %1, %32 ]
  ret i1 %.020
}